target datalayout = "e-m:e-p270:32:32-p271:32:32-p272:64:64-i64:64-i128:128-f80:128-n8:16:32:64-S128"
target triple = "x86_64-unknown-linux-gnu"

%struct.mz_zip_archive = type { i64, i64, i32, i32, i32, i32, i64, ptr, ptr, ptr, ptr, ptr, ptr, ptr, ptr, ptr }
%struct.mz_zip_internal_state_tag = type { %struct.mz_zip_array, %struct.mz_zip_array, %struct.mz_zip_array, i32, i32, i32, ptr, i64, ptr, i64, i64 }
%struct.mz_zip_array = type { ptr, i64, i64, i32 }

; Function Attrs: nounwind uwtable
define internal i64 @mz_zip_heap_write_func(ptr noundef %pOpaque, i64 noundef %file_ofs, ptr noundef %pBuf, i64 noundef %n) #0 {
entry:
  %retval = alloca i64, align 8
  %pOpaque.addr = alloca ptr, align 8
  %file_ofs.addr = alloca i64, align 8
  %pBuf.addr = alloca ptr, align 8
  %n.addr = alloca i64, align 8
  %pZip = alloca ptr, align 8
  %pState = alloca ptr, align 8
  %new_size = alloca i64, align 8
  %pNew_block = alloca ptr, align 8
  %new_capacity = alloca i64, align 8
  store ptr %pOpaque, ptr %pOpaque.addr, align 8
  store i64 %file_ofs, ptr %file_ofs.addr, align 8
  store ptr %pBuf, ptr %pBuf.addr, align 8
  store i64 %n, ptr %n.addr, align 8
  %0 = load ptr, ptr %pOpaque.addr, align 8
  store ptr %0, ptr %pZip, align 8
  %1 = load ptr, ptr %pZip, align 8
  %m_pState = getelementptr inbounds %struct.mz_zip_archive, ptr %1, i32 0, i32 15
  %2 = load ptr, ptr %m_pState, align 8
  store ptr %2, ptr %pState, align 8
  %3 = load i64, ptr %file_ofs.addr, align 8
  %4 = load i64, ptr %n.addr, align 8
  %add = add i64 %3, %4
  %5 = load ptr, ptr %pState, align 8
  %m_mem_size = getelementptr inbounds %struct.mz_zip_internal_state_tag, ptr %5, i32 0, i32 9
  %6 = load i64, ptr %m_mem_size, align 8
  %cmp = icmp ugt i64 %add, %6
  br i1 %cmp, label %cond.true, label %cond.false

cond.true:                                        ; preds = %entry
  %7 = load i64, ptr %file_ofs.addr, align 8
  %8 = load i64, ptr %n.addr, align 8
  %add1 = add i64 %7, %8
  br label %cond.end

cond.false:                                       ; preds = %entry
  %9 = load ptr, ptr %pState, align 8
  %m_mem_size2 = getelementptr inbounds %struct.mz_zip_internal_state_tag, ptr %9, i32 0, i32 9
  %10 = load i64, ptr %m_mem_size2, align 8
  br label %cond.end

cond.end:                                         ; preds = %cond.false, %cond.true
  %cond = phi i64 [ %add1, %cond.true ], [ %10, %cond.false ]
  store i64 %cond, ptr %new_size, align 8
  %11 = load i64, ptr %n.addr, align 8
  %tobool = icmp ne i64 %11, 0
  br i1 %tobool, label %if.end, label %if.then

if.then:                                          ; preds = %cond.end
  store i64 0, ptr %retval, align 8
  br label %return

if.end:                                           ; preds = %cond.end
  %12 = load i64, ptr %new_size, align 8
  %13 = load ptr, ptr %pState, align 8
  %m_mem_capacity = getelementptr inbounds %struct.mz_zip_internal_state_tag, ptr %13, i32 0, i32 10
  %14 = load i64, ptr %m_mem_capacity, align 8
  %cmp3 = icmp ugt i64 %12, %14
  br i1 %cmp3, label %if.then4, label %if.end18

if.then4:                                         ; preds = %if.end
  %15 = load ptr, ptr %pState, align 8
  %m_mem_capacity5 = getelementptr inbounds %struct.mz_zip_internal_state_tag, ptr %15, i32 0, i32 10
  %16 = load i64, ptr %m_mem_capacity5, align 8
  %cmp6 = icmp ugt i64 64, %16
  br i1 %cmp6, label %cond.true7, label %cond.false8

cond.true7:                                       ; preds = %if.then4
  br label %cond.end10

cond.false8:                                      ; preds = %if.then4
  %17 = load ptr, ptr %pState, align 8
  %m_mem_capacity9 = getelementptr inbounds %struct.mz_zip_internal_state_tag, ptr %17, i32 0, i32 10
  %18 = load i64, ptr %m_mem_capacity9, align 8
  br label %cond.end10

cond.end10:                                       ; preds = %cond.false8, %cond.true7
  %cond11 = phi i64 [ 64, %cond.true7 ], [ %18, %cond.false8 ]
  store i64 %cond11, ptr %new_capacity, align 8
  br label %while.cond

while.cond:                                       ; preds = %while.body, %cond.end10
  %19 = load i64, ptr %new_capacity, align 8
  %20 = load i64, ptr %new_size, align 8
  %cmp12 = icmp ult i64 %19, %20
  br i1 %cmp12, label %while.body, label %while.end

while.body:                                       ; preds = %while.cond
  %21 = load i64, ptr %new_capacity, align 8
  %mul = mul i64 %21, 2
  store i64 %mul, ptr %new_capacity, align 8
  br label %while.cond, !llvm.loop !103

while.end:                                        ; preds = %while.cond
  %22 = load ptr, ptr %pZip, align 8
  %m_pRealloc = getelementptr inbounds %struct.mz_zip_archive, ptr %22, i32 0, i32 9
  %23 = load ptr, ptr %m_pRealloc, align 8
  %24 = load ptr, ptr %pZip, align 8
  %m_pAlloc_opaque = getelementptr inbounds %struct.mz_zip_archive, ptr %24, i32 0, i32 10
  %25 = load ptr, ptr %m_pAlloc_opaque, align 8
  %26 = load ptr, ptr %pState, align 8
  %m_pMem = getelementptr inbounds %struct.mz_zip_internal_state_tag, ptr %26, i32 0, i32 8
  %27 = load ptr, ptr %m_pMem, align 8
  %28 = load i64, ptr %new_capacity, align 8
  %call = call ptr %23(ptr noundef %25, ptr noundef %27, i64 noundef 1, i64 noundef %28)
  store ptr %call, ptr %pNew_block, align 8
  %cmp13 = icmp eq ptr null, %call
  br i1 %cmp13, label %if.then14, label %if.end15

if.then14:                                        ; preds = %while.end
  store i64 0, ptr %retval, align 8
  br label %return

if.end15:                                         ; preds = %while.end
  %29 = load ptr, ptr %pNew_block, align 8
  %30 = load ptr, ptr %pState, align 8
  %m_pMem16 = getelementptr inbounds %struct.mz_zip_internal_state_tag, ptr %30, i32 0, i32 8
  store ptr %29, ptr %m_pMem16, align 8
  %31 = load i64, ptr %new_capacity, align 8
  %32 = load ptr, ptr %pState, align 8
  %m_mem_capacity17 = getelementptr inbounds %struct.mz_zip_internal_state_tag, ptr %32, i32 0, i32 10
  store i64 %31, ptr %m_mem_capacity17, align 8
  br label %if.end18

if.end18:                                         ; preds = %if.end15, %if.end
  %33 = load ptr, ptr %pState, align 8
  %m_pMem19 = getelementptr inbounds %struct.mz_zip_internal_state_tag, ptr %33, i32 0, i32 8
  %34 = load ptr, ptr %m_pMem19, align 8
  %35 = load i64, ptr %file_ofs.addr, align 8
  %add.ptr = getelementptr inbounds i8, ptr %34, i64 %35
  %36 = load ptr, ptr %pBuf.addr, align 8
  %37 = load i64, ptr %n.addr, align 8
  call void @llvm.memcpy.p0.p0.i64(ptr align 1 %add.ptr, ptr align 1 %36, i64 %37, i1 false)
  %38 = load i64, ptr %new_size, align 8
  %39 = load ptr, ptr %pState, align 8
  %m_mem_size20 = getelementptr inbounds %struct.mz_zip_internal_state_tag, ptr %39, i32 0, i32 9
  store i64 %38, ptr %m_mem_size20, align 8
  %40 = load i64, ptr %n.addr, align 8
  store i64 %40, ptr %retval, align 8
  br label %return

return:                                           ; preds = %if.end18, %if.then14, %if.then
  %41 = load i64, ptr %retval, align 8
  ret i64 %41
}