; Function Attrs: nounwind uwtable
define internal noundef i64 @mz_zip_heap_write_func(ptr noundef readonly captures(none) %pOpaque, i64 noundef %file_ofs, ptr noundef readonly captures(none) %pBuf, i64 noundef %n) #4 {
entry:
  %m_pState = getelementptr inbounds nuw i8, ptr %pOpaque, i64 104
  %0 = load ptr, ptr %m_pState, align 8
  %add = add i64 %n, %file_ofs
  %m_mem_size = getelementptr inbounds nuw i8, ptr %0, i64 136
  %1 = load i64, ptr %m_mem_size, align 8
  %add. = tail call i64 @llvm.umax.i64(i64 %add, i64 %1)
  %tobool.not = icmp eq i64 %n, 0
  br i1 %tobool.not, label %return, label %if.end

if.end:                                           ; preds = %entry
  %m_mem_capacity = getelementptr inbounds nuw i8, ptr %0, i64 144
  %2 = load i64, ptr %m_mem_capacity, align 8
  %cmp3 = icmp ugt i64 %add., %2
  br i1 %cmp3, label %if.then4, label %if.end.if.end18_crit_edge

if.end.if.end18_crit_edge:                        ; preds = %if.end
  %m_pMem19.phi.trans.insert = getelementptr inbounds nuw i8, ptr %0, i64 128
  %.pre = load ptr, ptr %m_pMem19.phi.trans.insert, align 8
  br label %if.end18

if.then4:                                         ; preds = %if.end
  %spec.select = tail call i64 @llvm.umax.i64(i64 %2, i64 64)
  br label %while.cond

while.cond:                                       ; preds = %while.cond, %if.then4
  %new_capacity.0 = phi i64 [ %spec.select, %if.then4 ], [ %mul, %while.cond ]
  %cmp12 = icmp ult i64 %new_capacity.0, %add.
  %mul = shl i64 %new_capacity.0, 1
  br i1 %cmp12, label %while.cond, label %while.end, !llvm.loop !102

while.end:                                        ; preds = %while.cond
  %m_pRealloc = getelementptr inbounds nuw i8, ptr %pOpaque, i64 56
  %3 = load ptr, ptr %m_pRealloc, align 8
  %m_pAlloc_opaque = getelementptr inbounds nuw i8, ptr %pOpaque, i64 64
  %4 = load ptr, ptr %m_pAlloc_opaque, align 8
  %m_pMem = getelementptr inbounds nuw i8, ptr %0, i64 128
  %5 = load ptr, ptr %m_pMem, align 8
  %call = tail call ptr %3(ptr noundef %4, ptr noundef %5, i64 noundef 1, i64 noundef %new_capacity.0) #30
  %cmp13 = icmp eq ptr %call, null
  br i1 %cmp13, label %return, label %if.end15

if.end15:                                         ; preds = %while.end
  store ptr %call, ptr %m_pMem, align 8
  store i64 %new_capacity.0, ptr %m_mem_capacity, align 8
  br label %if.end18

if.end18:                                         ; preds = %if.end.if.end18_crit_edge, %if.end15
  %6 = phi ptr [ %.pre, %if.end.if.end18_crit_edge ], [ %call, %if.end15 ]
  %add.ptr = getelementptr inbounds i8, ptr %6, i64 %file_ofs
  tail call void @llvm.memcpy.p0.p0.i64(ptr align 1 %add.ptr, ptr align 1 %pBuf, i64 %n, i1 false)
  store i64 %add., ptr %m_mem_size, align 8
  br label %return

return:                                           ; preds = %while.end, %entry, %if.end18
  %retval.0 = phi i64 [ %n, %if.end18 ], [ 0, %entry ], [ 0, %while.end ]
  ret i64 %retval.0
}